target datalayout = "e-m:e-p270:32:32-p271:32:32-p272:64:64-i64:64-i128:128-f80:128-n8:16:32:64-S128"
target triple = "x86_64-pc-linux-gnu"

%struct.CodedBitstreamUnitTypeDescriptor = type { i32, %union.anon.1, i32, i64, %union.anon.2 }
%union.anon.1 = type { [3 x i32] }
%union.anon.2 = type { %struct.anon.3 }
%struct.anon.3 = type { i32, [2 x i64] }
%union.AVRefStructOpaque = type { ptr }

; Function Attrs: nounwind uwtable
define internal void @cbs_default_free_unit_content(ptr %0, ptr noundef %1) #3 {
  %3 = alloca %union.AVRefStructOpaque, align 8
  %4 = alloca ptr, align 8
  %5 = alloca ptr, align 8
  %6 = alloca i32, align 4
  %7 = alloca ptr, align 8
  %8 = getelementptr inbounds nuw %union.AVRefStructOpaque, ptr %3, i32 0, i32 0
  store ptr %0, ptr %8, align 8
  store ptr %1, ptr %4, align 8, !tbaa !12
  call void @llvm.lifetime.start.p0(i64 8, ptr %5) #13
  %9 = load ptr, ptr %3, align 8, !tbaa !99
  store ptr %9, ptr %5, align 8, !tbaa !124
  call void @llvm.lifetime.start.p0(i64 4, ptr %6) #13
  store i32 0, ptr %6, align 4, !tbaa !10
  br label %10

10:                                               ; preds = %30, %2
  %11 = load i32, ptr %6, align 4, !tbaa !10
  %12 = load ptr, ptr %5, align 8, !tbaa !124
  %13 = getelementptr inbounds nuw %struct.CodedBitstreamUnitTypeDescriptor, ptr %12, i32 0, i32 4
  %14 = getelementptr inbounds nuw %struct.anon.3, ptr %13, i32 0, i32 0
  %15 = load i32, ptr %14, align 8, !tbaa !99
  %16 = icmp slt i32 %11, %15
  br i1 %16, label %18, label %17

17:                                               ; preds = %10
  call void @llvm.lifetime.end.p0(i64 4, ptr %6) #13
  br label %33

18:                                               ; preds = %10
  call void @llvm.lifetime.start.p0(i64 8, ptr %7) #13
  %19 = load ptr, ptr %4, align 8, !tbaa !12
  %20 = load ptr, ptr %5, align 8, !tbaa !124
  %21 = getelementptr inbounds nuw %struct.CodedBitstreamUnitTypeDescriptor, ptr %20, i32 0, i32 4
  %22 = getelementptr inbounds nuw %struct.anon.3, ptr %21, i32 0, i32 1
  %23 = load i32, ptr %6, align 4, !tbaa !10
  %24 = sext i32 %23 to i64
  %25 = getelementptr inbounds [2 x i64], ptr %22, i64 0, i64 %24
  %26 = load i64, ptr %25, align 8, !tbaa !99
  %27 = getelementptr inbounds nuw i8, ptr %19, i64 %26
  store ptr %27, ptr %7, align 8, !tbaa !140
  %28 = load ptr, ptr %7, align 8, !tbaa !140
  %29 = getelementptr inbounds ptr, ptr %28, i64 1
  call void @av_buffer_unref(ptr noundef %29)
  call void @llvm.lifetime.end.p0(i64 8, ptr %7) #13
  br label %30

30:                                               ; preds = %18
  %31 = load i32, ptr %6, align 4, !tbaa !10
  %32 = add nsw i32 %31, 1
  store i32 %32, ptr %6, align 4, !tbaa !10
  br label %10, !llvm.loop !141

33:                                               ; preds = %17
  call void @llvm.lifetime.end.p0(i64 8, ptr %5) #13
  ret void
}