; Function Attrs: nounwind uwtable
define internal void @cbs_default_free_unit_content(ptr readonly captures(none) %0, ptr noundef %1) #3 {
  %3 = getelementptr inbounds nuw i8, ptr %0, i64 32
  %invariant.gep = getelementptr i8, ptr %1, i64 8
  %4 = load i32, ptr %3, align 8, !tbaa !91
  %5 = icmp sgt i32 %4, 0
  br i1 %5, label %.lr.ph, label %._crit_edge

.lr.ph:                                           ; preds = %2
  %6 = getelementptr inbounds nuw i8, ptr %0, i64 40
  br label %7

._crit_edge:                                      ; preds = %7, %2
  ret void

7:                                                ; preds = %.lr.ph, %7
  %indvars.iv = phi i64 [ 0, %.lr.ph ], [ %indvars.iv.next, %7 ]
  %8 = getelementptr inbounds nuw [2 x i64], ptr %6, i64 0, i64 %indvars.iv
  %9 = load i64, ptr %8, align 8, !tbaa !91
  %gep = getelementptr i8, ptr %invariant.gep, i64 %9
  tail call void @av_buffer_unref(ptr noundef nonnull %gep) #10
  %indvars.iv.next = add nuw nsw i64 %indvars.iv, 1
  %10 = load i32, ptr %3, align 8, !tbaa !91
  %11 = sext i32 %10 to i64
  %12 = icmp slt i64 %indvars.iv.next, %11
  br i1 %12, label %7, label %._crit_edge, !llvm.loop !122
}